; Function Attrs: mustprogress uwtable
define void @_ZN7rocksdb3log6Reader16ReportCorruptionEmPKc(ptr nocapture noundef nonnull readonly align 8 dereferenceable(240) %this, i64 noundef %bytes, ptr noundef %reason) local_unnamed_addr #3 align 2 personality ptr @__gxx_personality_v0 {
entry:
  %ref.tmp = alloca %"class.rocksdb::Status", align 8
  %ref.tmp2 = alloca %"class.rocksdb::Slice", align 8
  %ref.tmp3 = alloca %"class.rocksdb::Slice", align 8
  store ptr %reason, ptr %ref.tmp2, align 8
  %cmp.i = icmp eq ptr %reason, null
  br i1 %cmp.i, label %_ZN7rocksdb5SliceC2EPKc.exit, label %cond.false.i

cond.false.i:                                     ; preds = %entry
  %call.i = tail call i64 @strlen(ptr noundef nonnull dereferenceable(1) %reason) #23
  br label %_ZN7rocksdb5SliceC2EPKc.exit

_ZN7rocksdb5SliceC2EPKc.exit:                     ; preds = %entry, %cond.false.i
  %cond.i = phi i64 [ %call.i, %cond.false.i ], [ 0, %entry ]
  %size_.i = getelementptr inbounds i8, ptr %ref.tmp2, i64 8
  store i64 %cond.i, ptr %size_.i, align 8
  store ptr @.str.18, ptr %ref.tmp3, align 8
  %size_.i1 = getelementptr inbounds i8, ptr %ref.tmp3, i64 8
  store i64 0, ptr %size_.i1, align 8
  call void @_ZN7rocksdb6StatusC2ENS0_4CodeENS0_7SubCodeERKNS_5SliceES5_NS0_8SeverityE(ptr noundef nonnull align 8 dereferenceable(16) %ref.tmp, i8 noundef zeroext 2, i8 noundef zeroext 0, ptr noundef nonnull align 8 dereferenceable(16) %ref.tmp2, ptr noundef nonnull align 8 dereferenceable(16) %ref.tmp3, i8 noundef zeroext 0)
  %reporter_.i = getelementptr inbounds i8, ptr %this, i64 32
  %0 = load ptr, ptr %reporter_.i, align 8
  %cmp.not.i = icmp eq ptr %0, null
  br i1 %cmp.not.i, label %invoke.cont, label %if.then.i

if.then.i:                                        ; preds = %_ZN7rocksdb5SliceC2EPKc.exit
  %vtable.i = load ptr, ptr %0, align 8
  %vfn.i = getelementptr inbounds i8, ptr %vtable.i, i64 16
  %1 = load ptr, ptr %vfn.i, align 8
  invoke void %1(ptr noundef nonnull align 8 dereferenceable(8) %0, i64 noundef %bytes, ptr noundef nonnull align 8 dereferenceable(16) %ref.tmp)
          to label %invoke.cont unwind label %lpad

invoke.cont:                                      ; preds = %_ZN7rocksdb5SliceC2EPKc.exit, %if.then.i
  %state_.i = getelementptr inbounds i8, ptr %ref.tmp, i64 8
  %2 = load ptr, ptr %state_.i, align 8
  %cmp.not.i.i = icmp eq ptr %2, null
  br i1 %cmp.not.i.i, label %_ZN7rocksdb6StatusD2Ev.exit, label %_ZNKSt14default_deleteIA_KcEclIS0_EENSt9enable_ifIXsr14is_convertibleIPA_T_PS1_EE5valueEvE4typeEPS5_.exit.i.i

_ZNKSt14default_deleteIA_KcEclIS0_EENSt9enable_ifIXsr14is_convertibleIPA_T_PS1_EE5valueEvE4typeEPS5_.exit.i.i: ; preds = %invoke.cont
  call void @_ZdaPv(ptr noundef nonnull %2) #22
  br label %_ZN7rocksdb6StatusD2Ev.exit

_ZN7rocksdb6StatusD2Ev.exit:                      ; preds = %invoke.cont, %_ZNKSt14default_deleteIA_KcEclIS0_EENSt9enable_ifIXsr14is_convertibleIPA_T_PS1_EE5valueEvE4typeEPS5_.exit.i.i
  ret void

lpad:                                             ; preds = %if.then.i
  %3 = landingpad { ptr, i32 }
          cleanup
  %state_.i2 = getelementptr inbounds i8, ptr %ref.tmp, i64 8
  %4 = load ptr, ptr %state_.i2, align 8
  %cmp.not.i.i3 = icmp eq ptr %4, null
  br i1 %cmp.not.i.i3, label %_ZN7rocksdb6StatusD2Ev.exit5, label %_ZNKSt14default_deleteIA_KcEclIS0_EENSt9enable_ifIXsr14is_convertibleIPA_T_PS1_EE5valueEvE4typeEPS5_.exit.i.i4

_ZNKSt14default_deleteIA_KcEclIS0_EENSt9enable_ifIXsr14is_convertibleIPA_T_PS1_EE5valueEvE4typeEPS5_.exit.i.i4: ; preds = %lpad
  call void @_ZdaPv(ptr noundef nonnull %4) #22
  br label %_ZN7rocksdb6StatusD2Ev.exit5

_ZN7rocksdb6StatusD2Ev.exit5:                     ; preds = %lpad, %_ZNKSt14default_deleteIA_KcEclIS0_EENSt9enable_ifIXsr14is_convertibleIPA_T_PS1_EE5valueEvE4typeEPS5_.exit.i.i4
  resume { ptr, i32 } %3
}